; Function Attrs: mustprogress nounwind uwtable
define internal void @_ZN7rocksdb12_GLOBAL__N_123CountedRandomAccessFileD0Ev(ptr noundef nonnull align 8 dereferenceable(40) initializes((0, 8)) %0) unnamed_addr #3 align 2 personality ptr @__gxx_personality_v0 {
  store ptr getelementptr inbounds nuw inrange(-16, 96) (i8, ptr @_ZTVN7rocksdb12_GLOBAL__N_123CountedRandomAccessFileE, i64 16), ptr %0, align 8, !tbaa !4
  %2 = getelementptr inbounds nuw i8, ptr %0, i64 32
  %3 = load ptr, ptr %2, align 8, !tbaa !101
  %4 = getelementptr inbounds nuw i8, ptr %3, i64 52
  %5 = atomicrmw add ptr %4, i32 1 seq_cst, align 4
  store ptr getelementptr inbounds nuw inrange(-16, 96) (i8, ptr @_ZTVN7rocksdb30FSRandomAccessFileOwnerWrapperE, i64 16), ptr %0, align 8, !tbaa !4
  %6 = getelementptr inbounds nuw i8, ptr %0, i64 24
  %7 = load ptr, ptr %6, align 8, !tbaa !92
  %.not.i.i.i = icmp eq ptr %7, null
  br i1 %.not.i.i.i, label %_ZNSt10unique_ptrIN7rocksdb18FSRandomAccessFileESt14default_deleteIS1_EED2Ev.exit.i.i, label %_ZNKSt14default_deleteIN7rocksdb18FSRandomAccessFileEEclEPS1_.exit.i.i.i

_ZNKSt14default_deleteIN7rocksdb18FSRandomAccessFileEEclEPS1_.exit.i.i.i: ; preds = %1
  %8 = load ptr, ptr %7, align 8, !tbaa !4
  %9 = getelementptr inbounds nuw i8, ptr %8, i64 8
  %10 = load ptr, ptr %9, align 8
  tail call void %10(ptr noundef nonnull align 8 dereferenceable(8) %7) #17
  br label %_ZNSt10unique_ptrIN7rocksdb18FSRandomAccessFileESt14default_deleteIS1_EED2Ev.exit.i.i

_ZNSt10unique_ptrIN7rocksdb18FSRandomAccessFileESt14default_deleteIS1_EED2Ev.exit.i.i: ; preds = %_ZNKSt14default_deleteIN7rocksdb18FSRandomAccessFileEEclEPS1_.exit.i.i.i, %1
  store ptr null, ptr %6, align 8, !tbaa !92
  store ptr getelementptr inbounds nuw inrange(-16, 96) (i8, ptr @_ZTVN7rocksdb25FSRandomAccessFileWrapperE, i64 16), ptr %0, align 8, !tbaa !4
  %11 = getelementptr inbounds nuw i8, ptr %0, i64 8
  %12 = load ptr, ptr %11, align 8, !tbaa !92
  %.not.i.i.i.i = icmp eq ptr %12, null
  br i1 %.not.i.i.i.i, label %_ZN7rocksdb12_GLOBAL__N_123CountedRandomAccessFileD2Ev.exit, label %_ZNKSt14default_deleteIN7rocksdb18FSRandomAccessFileEEclEPS1_.exit.i.i.i.i

_ZNKSt14default_deleteIN7rocksdb18FSRandomAccessFileEEclEPS1_.exit.i.i.i.i: ; preds = %_ZNSt10unique_ptrIN7rocksdb18FSRandomAccessFileESt14default_deleteIS1_EED2Ev.exit.i.i
  %13 = load ptr, ptr %12, align 8, !tbaa !4
  %14 = getelementptr inbounds nuw i8, ptr %13, i64 8
  %15 = load ptr, ptr %14, align 8
  tail call void %15(ptr noundef nonnull align 8 dereferenceable(8) %12) #17
  br label %_ZN7rocksdb12_GLOBAL__N_123CountedRandomAccessFileD2Ev.exit

_ZN7rocksdb12_GLOBAL__N_123CountedRandomAccessFileD2Ev.exit: ; preds = %_ZNSt10unique_ptrIN7rocksdb18FSRandomAccessFileESt14default_deleteIS1_EED2Ev.exit.i.i, %_ZNKSt14default_deleteIN7rocksdb18FSRandomAccessFileEEclEPS1_.exit.i.i.i.i
  tail call void @_ZdlPvm(ptr noundef nonnull %0, i64 noundef 40) #19
  ret void
}